; Function Attrs: null_pointer_is_valid sspstrong uwtable
define internal noundef i32 @dissect_eip_security_trusted_identities(ptr noundef %0, ptr noundef %1, ptr noundef %2, ptr noundef %3, i32 noundef %4, i32 noundef %5) #0 {
  %7 = alloca i32, align 4
  %8 = load i32, ptr @hf_eip_security_num_trusted_identities, align 4
  %9 = load i32, ptr @ett_eip_security_trusted_identities, align 4
  call void @llvm.lifetime.start.p0(i64 4, ptr nonnull %7) #12
  %10 = icmp slt i32 %5, 1
  br i1 %10, label %11, label %13

11:                                               ; preds = %6
  %12 = tail call ptr @expert_add_info(ptr noundef %0, ptr noundef %2, ptr noundef nonnull @ei_mal_eip_security_trusted_identities)
  br label %dissect_eip_security_cert_epath_list.exit

13:                                               ; preds = %6
  %14 = call ptr @proto_tree_add_item_ret_uint(ptr noundef %1, i32 noundef %8, ptr noundef %3, i32 noundef %4, i32 noundef 1, i32 noundef 0, ptr noundef nonnull %7)
  %15 = call ptr @proto_item_add_subtree(ptr noundef %14, i32 noundef %9)
  %16 = add i32 %4, 1
  %17 = load i32, ptr %7, align 4
  %.not.i = icmp eq i32 %17, 0
  br i1 %.not.i, label %._crit_edge.i, label %.lr.ph.i

.lr.ph.i:                                         ; preds = %13, %.lr.ph.i
  %.02832.i = phi i32 [ %19, %.lr.ph.i ], [ %16, %13 ]
  %.02931.i = phi i32 [ %20, %.lr.ph.i ], [ 0, %13 ]
  %18 = call i32 @dissect_padded_epath_len_usint(ptr noundef %0, ptr noundef %15, ptr noundef %14, ptr noundef %3, i32 noundef %.02832.i, i32 noundef %5)
  %19 = add i32 %18, %.02832.i
  %20 = add nuw i32 %.02931.i, 1
  %21 = load i32, ptr %7, align 4
  %22 = icmp ult i32 %20, %21
  br i1 %22, label %.lr.ph.i, label %._crit_edge.i, !llvm.loop !15

._crit_edge.i:                                    ; preds = %.lr.ph.i, %13
  %.028.lcssa.i = phi i32 [ %16, %13 ], [ %19, %.lr.ph.i ]
  %23 = sub i32 %.028.lcssa.i, %4
  call void @proto_item_set_len(ptr noundef %14, i32 noundef %23)
  br label %dissect_eip_security_cert_epath_list.exit

dissect_eip_security_cert_epath_list.exit:        ; preds = %11, %._crit_edge.i
  %.0.i = phi i32 [ %5, %11 ], [ %23, %._crit_edge.i ]
  call void @llvm.lifetime.end.p0(i64 4, ptr nonnull %7) #12
  ret i32 %.0.i
}